
crossbar_la_test.elf:     file format elf32-littleriscv


Disassembly of section .text:

10000000 <_ftext>:
10000000:	0b00006f          	j	100000b0 <crt_init>
10000004:	00000013          	nop
10000008:	00000013          	nop
1000000c:	00000013          	nop
10000010:	00000013          	nop
10000014:	00000013          	nop
10000018:	00000013          	nop
1000001c:	00000013          	nop

10000020 <trap_entry>:
10000020:	fe112e23          	sw	ra,-4(sp)
10000024:	fe512c23          	sw	t0,-8(sp)
10000028:	fe612a23          	sw	t1,-12(sp)
1000002c:	fe712823          	sw	t2,-16(sp)
10000030:	fea12623          	sw	a0,-20(sp)
10000034:	feb12423          	sw	a1,-24(sp)
10000038:	fec12223          	sw	a2,-28(sp)
1000003c:	fed12023          	sw	a3,-32(sp)
10000040:	fce12e23          	sw	a4,-36(sp)
10000044:	fcf12c23          	sw	a5,-40(sp)
10000048:	fd012a23          	sw	a6,-44(sp)
1000004c:	fd112823          	sw	a7,-48(sp)
10000050:	fdc12623          	sw	t3,-52(sp)
10000054:	fdd12423          	sw	t4,-56(sp)
10000058:	fde12223          	sw	t5,-60(sp)
1000005c:	fdf12023          	sw	t6,-64(sp)
10000060:	fc010113          	addi	sp,sp,-64
10000064:	110000ef          	jal	ra,10000174 <isr>
10000068:	03c12083          	lw	ra,60(sp)
1000006c:	03812283          	lw	t0,56(sp)
10000070:	03412303          	lw	t1,52(sp)
10000074:	03012383          	lw	t2,48(sp)
10000078:	02c12503          	lw	a0,44(sp)
1000007c:	02812583          	lw	a1,40(sp)
10000080:	02412603          	lw	a2,36(sp)
10000084:	02012683          	lw	a3,32(sp)
10000088:	01c12703          	lw	a4,28(sp)
1000008c:	01812783          	lw	a5,24(sp)
10000090:	01412803          	lw	a6,20(sp)
10000094:	01012883          	lw	a7,16(sp)
10000098:	00c12e03          	lw	t3,12(sp)
1000009c:	00812e83          	lw	t4,8(sp)
100000a0:	00412f03          	lw	t5,4(sp)
100000a4:	00012f83          	lw	t6,0(sp)
100000a8:	04010113          	addi	sp,sp,64
100000ac:	30200073          	mret

100000b0 <crt_init>:
100000b0:	60000113          	li	sp,1536
100000b4:	00000517          	auipc	a0,0x0
100000b8:	f6c50513          	addi	a0,a0,-148 # 10000020 <trap_entry>
100000bc:	30551073          	csrw	mtvec,a0

100000c0 <data_init>:
100000c0:	00000513          	li	a0,0
100000c4:	00000593          	li	a1,0
100000c8:	00000617          	auipc	a2,0x0
100000cc:	79860613          	addi	a2,a2,1944 # 10000860 <_erodata>

100000d0 <data_loop>:
100000d0:	00b50c63          	beq	a0,a1,100000e8 <bss_init>
100000d4:	00062683          	lw	a3,0(a2)
100000d8:	00d52023          	sw	a3,0(a0)
100000dc:	00450513          	addi	a0,a0,4
100000e0:	00460613          	addi	a2,a2,4
100000e4:	fedff06f          	j	100000d0 <data_loop>

100000e8 <bss_init>:
100000e8:	00000513          	li	a0,0
100000ec:	00800593          	li	a1,8

100000f0 <bss_loop>:
100000f0:	00b50863          	beq	a0,a1,10000100 <bss_done>
100000f4:	00052023          	sw	zero,0(a0)
100000f8:	00450513          	addi	a0,a0,4
100000fc:	ff5ff06f          	j	100000f0 <bss_loop>

10000100 <bss_done>:
10000100:	00001537          	lui	a0,0x1
10000104:	88050513          	addi	a0,a0,-1920 # 880 <_fstack+0x280>
10000108:	30451073          	csrw	mie,a0
1000010c:	3a0000ef          	jal	ra,100004ac <main>

10000110 <infinit_loop>:
10000110:	0000006f          	j	10000110 <infinit_loop>

10000114 <flush_cpu_icache>:
10000114:	ff010113          	addi	sp,sp,-16
10000118:	00812623          	sw	s0,12(sp)
1000011c:	01010413          	addi	s0,sp,16
10000120:	00000013          	nop
10000124:	00c12403          	lw	s0,12(sp)
10000128:	01010113          	addi	sp,sp,16
1000012c:	00008067          	ret

10000130 <flush_cpu_dcache>:
10000130:	ff010113          	addi	sp,sp,-16
10000134:	00812623          	sw	s0,12(sp)
10000138:	01010413          	addi	s0,sp,16
1000013c:	00000013          	nop
10000140:	00c12403          	lw	s0,12(sp)
10000144:	01010113          	addi	sp,sp,16
10000148:	00008067          	ret

1000014c <irq_setmask>:
1000014c:	fe010113          	addi	sp,sp,-32
10000150:	00812e23          	sw	s0,28(sp)
10000154:	02010413          	addi	s0,sp,32
10000158:	fea42623          	sw	a0,-20(s0)
1000015c:	fec42783          	lw	a5,-20(s0)
10000160:	bc079073          	csrw	0xbc0,a5
10000164:	00000013          	nop
10000168:	01c12403          	lw	s0,28(sp)
1000016c:	02010113          	addi	sp,sp,32
10000170:	00008067          	ret

10000174 <isr>:
10000174:	ff010113          	addi	sp,sp,-16
10000178:	00112623          	sw	ra,12(sp)
1000017c:	00812423          	sw	s0,8(sp)
10000180:	01010413          	addi	s0,sp,16
10000184:	00000513          	li	a0,0
10000188:	fc5ff0ef          	jal	ra,1000014c <irq_setmask>
1000018c:	f00037b7          	lui	a5,0xf0003
10000190:	03878793          	addi	a5,a5,56 # f0003038 <_erodata+0xe00027d8>
10000194:	00a00713          	li	a4,10
10000198:	00e7a023          	sw	a4,0(a5)
1000019c:	f00037b7          	lui	a5,0xf0003
100001a0:	03c78793          	addi	a5,a5,60 # f000303c <_erodata+0xe00027dc>
100001a4:	00020737          	lui	a4,0x20
100001a8:	00e7a023          	sw	a4,0(a5)
100001ac:	00100713          	li	a4,1
100001b0:	00e01023          	sh	a4,0(zero) # 0 <flag>
100001b4:	00000013          	nop
100001b8:	00c12083          	lw	ra,12(sp)
100001bc:	00812403          	lw	s0,8(sp)
100001c0:	01010113          	addi	sp,sp,16
100001c4:	00008067          	ret

100001c8 <flush_cpu_icache>:
100001c8:	ff010113          	addi	sp,sp,-16
100001cc:	00812623          	sw	s0,12(sp)
100001d0:	01010413          	addi	s0,sp,16
100001d4:	00000013          	nop
100001d8:	00c12403          	lw	s0,12(sp)
100001dc:	01010113          	addi	sp,sp,16
100001e0:	00008067          	ret

100001e4 <flush_cpu_dcache>:
100001e4:	ff010113          	addi	sp,sp,-16
100001e8:	00812623          	sw	s0,12(sp)
100001ec:	01010413          	addi	s0,sp,16
100001f0:	00000013          	nop
100001f4:	00c12403          	lw	s0,12(sp)
100001f8:	01010113          	addi	sp,sp,16
100001fc:	00008067          	ret

10000200 <putchar>:
10000200:	fe010113          	addi	sp,sp,-32
10000204:	00112e23          	sw	ra,28(sp)
10000208:	00812c23          	sw	s0,24(sp)
1000020c:	02010413          	addi	s0,sp,32
10000210:	00050793          	mv	a5,a0
10000214:	fef407a3          	sb	a5,-17(s0)
10000218:	fef44703          	lbu	a4,-17(s0)
1000021c:	00a00793          	li	a5,10
10000220:	00f71663          	bne	a4,a5,1000022c <putchar+0x2c>
10000224:	00d00513          	li	a0,13
10000228:	fd9ff0ef          	jal	ra,10000200 <putchar>
1000022c:	00000013          	nop
10000230:	f00067b7          	lui	a5,0xf0006
10000234:	80478793          	addi	a5,a5,-2044 # f0005804 <_erodata+0xe0004fa4>
10000238:	0007a703          	lw	a4,0(a5)
1000023c:	00100793          	li	a5,1
10000240:	fef708e3          	beq	a4,a5,10000230 <putchar+0x30>
10000244:	f00067b7          	lui	a5,0xf0006
10000248:	80078793          	addi	a5,a5,-2048 # f0005800 <_erodata+0xe0004fa0>
1000024c:	fef44703          	lbu	a4,-17(s0)
10000250:	00e7a023          	sw	a4,0(a5)
10000254:	00000013          	nop
10000258:	01c12083          	lw	ra,28(sp)
1000025c:	01812403          	lw	s0,24(sp)
10000260:	02010113          	addi	sp,sp,32
10000264:	00008067          	ret

10000268 <print>:
10000268:	fe010113          	addi	sp,sp,-32
1000026c:	00112e23          	sw	ra,28(sp)
10000270:	00812c23          	sw	s0,24(sp)
10000274:	02010413          	addi	s0,sp,32
10000278:	fea42623          	sw	a0,-20(s0)
1000027c:	01c0006f          	j	10000298 <print+0x30>
10000280:	fec42783          	lw	a5,-20(s0)
10000284:	00178713          	addi	a4,a5,1
10000288:	fee42623          	sw	a4,-20(s0)
1000028c:	0007c783          	lbu	a5,0(a5)
10000290:	00078513          	mv	a0,a5
10000294:	f6dff0ef          	jal	ra,10000200 <putchar>
10000298:	fec42783          	lw	a5,-20(s0)
1000029c:	0007c783          	lbu	a5,0(a5)
100002a0:	fe0790e3          	bnez	a5,10000280 <print+0x18>
100002a4:	00000013          	nop
100002a8:	00000013          	nop
100002ac:	01c12083          	lw	ra,28(sp)
100002b0:	01812403          	lw	s0,24(sp)
100002b4:	02010113          	addi	sp,sp,32
100002b8:	00008067          	ret

100002bc <write>:
100002bc:	fc010113          	addi	sp,sp,-64
100002c0:	02812e23          	sw	s0,60(sp)
100002c4:	04010413          	addi	s0,sp,64
100002c8:	00050793          	mv	a5,a0
100002cc:	00058713          	mv	a4,a1
100002d0:	fcf407a3          	sb	a5,-49(s0)
100002d4:	00070793          	mv	a5,a4
100002d8:	fcf40723          	sb	a5,-50(s0)
100002dc:	fcf44783          	lbu	a5,-49(s0)
100002e0:	fef42423          	sw	a5,-24(s0)
100002e4:	fcf44783          	lbu	a5,-49(s0)
100002e8:	fff7c793          	not	a5,a5
100002ec:	0ff7f793          	zext.b	a5,a5
100002f0:	00879793          	slli	a5,a5,0x8
100002f4:	fef42223          	sw	a5,-28(s0)
100002f8:	fce44783          	lbu	a5,-50(s0)
100002fc:	00100713          	li	a4,1
10000300:	00f717b3          	sll	a5,a4,a5
10000304:	01079793          	slli	a5,a5,0x10
10000308:	fef42023          	sw	a5,-32(s0)
1000030c:	fe842703          	lw	a4,-24(s0)
10000310:	fe442783          	lw	a5,-28(s0)
10000314:	00f767b3          	or	a5,a4,a5
10000318:	fe042703          	lw	a4,-32(s0)
1000031c:	00f767b3          	or	a5,a4,a5
10000320:	fcf42e23          	sw	a5,-36(s0)
10000324:	f00037b7          	lui	a5,0xf0003
10000328:	03c78793          	addi	a5,a5,60 # f000303c <_erodata+0xe00027dc>
1000032c:	fdc42703          	lw	a4,-36(s0)
10000330:	00e7a023          	sw	a4,0(a5)
10000334:	fe042623          	sw	zero,-20(s0)
10000338:	0140006f          	j	1000034c <write+0x90>
1000033c:	00000013          	nop
10000340:	fec42783          	lw	a5,-20(s0)
10000344:	00178793          	addi	a5,a5,1
10000348:	fef42623          	sw	a5,-20(s0)
1000034c:	fec42703          	lw	a4,-20(s0)
10000350:	00900793          	li	a5,9
10000354:	fee7d4e3          	bge	a5,a4,1000033c <write+0x80>
10000358:	f00037b7          	lui	a5,0xf0003
1000035c:	03c78793          	addi	a5,a5,60 # f000303c <_erodata+0xe00027dc>
10000360:	0007a023          	sw	zero,0(a5)
10000364:	00000013          	nop
10000368:	03c12403          	lw	s0,60(sp)
1000036c:	04010113          	addi	sp,sp,64
10000370:	00008067          	ret

10000374 <read>:
10000374:	fd010113          	addi	sp,sp,-48
10000378:	02812623          	sw	s0,44(sp)
1000037c:	03010413          	addi	s0,sp,48
10000380:	00050793          	mv	a5,a0
10000384:	fcf40fa3          	sb	a5,-33(s0)
10000388:	fdf44783          	lbu	a5,-33(s0)
1000038c:	00100713          	li	a4,1
10000390:	00f717b3          	sll	a5,a4,a5
10000394:	01079793          	slli	a5,a5,0x10
10000398:	fef42423          	sw	a5,-24(s0)
1000039c:	fe842783          	lw	a5,-24(s0)
100003a0:	fef42223          	sw	a5,-28(s0)
100003a4:	f00037b7          	lui	a5,0xf0003
100003a8:	03c78793          	addi	a5,a5,60 # f000303c <_erodata+0xe00027dc>
100003ac:	fe442703          	lw	a4,-28(s0)
100003b0:	00e7a023          	sw	a4,0(a5)
100003b4:	fe042623          	sw	zero,-20(s0)
100003b8:	0140006f          	j	100003cc <read+0x58>
100003bc:	00000013          	nop
100003c0:	fec42783          	lw	a5,-20(s0)
100003c4:	00178793          	addi	a5,a5,1
100003c8:	fef42623          	sw	a5,-20(s0)
100003cc:	fec42703          	lw	a4,-20(s0)
100003d0:	00900793          	li	a5,9
100003d4:	fee7d4e3          	bge	a5,a4,100003bc <read+0x48>
100003d8:	f00037b7          	lui	a5,0xf0003
100003dc:	03878793          	addi	a5,a5,56 # f0003038 <_erodata+0xe00027d8>
100003e0:	0007a783          	lw	a5,0(a5)
100003e4:	fef401a3          	sb	a5,-29(s0)
100003e8:	f00037b7          	lui	a5,0xf0003
100003ec:	03c78793          	addi	a5,a5,60 # f000303c <_erodata+0xe00027dc>
100003f0:	0007a023          	sw	zero,0(a5)
100003f4:	fe344783          	lbu	a5,-29(s0)
100003f8:	00078513          	mv	a0,a5
100003fc:	02c12403          	lw	s0,44(sp)
10000400:	03010113          	addi	sp,sp,48
10000404:	00008067          	ret

10000408 <mac>:
10000408:	fc010113          	addi	sp,sp,-64
1000040c:	02812e23          	sw	s0,60(sp)
10000410:	04010413          	addi	s0,sp,64
10000414:	00050793          	mv	a5,a0
10000418:	fcf407a3          	sb	a5,-49(s0)
1000041c:	fe042423          	sw	zero,-24(s0)
10000420:	fe042223          	sw	zero,-28(s0)
10000424:	fcf44783          	lbu	a5,-49(s0)
10000428:	01079793          	slli	a5,a5,0x10
1000042c:	fef42023          	sw	a5,-32(s0)
10000430:	fe842703          	lw	a4,-24(s0)
10000434:	fe442783          	lw	a5,-28(s0)
10000438:	00f767b3          	or	a5,a4,a5
1000043c:	fe042703          	lw	a4,-32(s0)
10000440:	00f767b3          	or	a5,a4,a5
10000444:	fcf42e23          	sw	a5,-36(s0)
10000448:	f00037b7          	lui	a5,0xf0003
1000044c:	03c78793          	addi	a5,a5,60 # f000303c <_erodata+0xe00027dc>
10000450:	fdc42703          	lw	a4,-36(s0)
10000454:	00e7a023          	sw	a4,0(a5)
10000458:	fe042623          	sw	zero,-20(s0)
1000045c:	0140006f          	j	10000470 <mac+0x68>
10000460:	00000013          	nop
10000464:	fec42783          	lw	a5,-20(s0)
10000468:	00178793          	addi	a5,a5,1
1000046c:	fef42623          	sw	a5,-20(s0)
10000470:	fec42703          	lw	a4,-20(s0)
10000474:	00900793          	li	a5,9
10000478:	fee7d4e3          	bge	a5,a4,10000460 <mac+0x58>
1000047c:	f00037b7          	lui	a5,0xf0003
10000480:	03878793          	addi	a5,a5,56 # f0003038 <_erodata+0xe00027d8>
10000484:	0007a783          	lw	a5,0(a5)
10000488:	fcf40da3          	sb	a5,-37(s0)
1000048c:	f00037b7          	lui	a5,0xf0003
10000490:	03c78793          	addi	a5,a5,60 # f000303c <_erodata+0xe00027dc>
10000494:	0007a023          	sw	zero,0(a5)
10000498:	fdb44783          	lbu	a5,-37(s0)
1000049c:	00078513          	mv	a0,a5
100004a0:	03c12403          	lw	s0,60(sp)
100004a4:	04010113          	addi	sp,sp,64
100004a8:	00008067          	ret

100004ac <main>:
100004ac:	fe010113          	addi	sp,sp,-32
100004b0:	00112e23          	sw	ra,28(sp)
100004b4:	00812c23          	sw	s0,24(sp)
100004b8:	02010413          	addi	s0,sp,32
100004bc:	260007b7          	lui	a5,0x26000
100004c0:	0a078793          	addi	a5,a5,160 # 260000a0 <_erodata+0x15fff840>
100004c4:	00002737          	lui	a4,0x2
100004c8:	80970713          	addi	a4,a4,-2039 # 1809 <_fstack+0x1209>
100004cc:	00e7a023          	sw	a4,0(a5)
100004d0:	260007b7          	lui	a5,0x26000
100004d4:	09c78793          	addi	a5,a5,156 # 2600009c <_erodata+0x15fff83c>
100004d8:	00002737          	lui	a4,0x2
100004dc:	80970713          	addi	a4,a4,-2039 # 1809 <_fstack+0x1209>
100004e0:	00e7a023          	sw	a4,0(a5)
100004e4:	260007b7          	lui	a5,0x26000
100004e8:	09878793          	addi	a5,a5,152 # 26000098 <_erodata+0x15fff838>
100004ec:	00002737          	lui	a4,0x2
100004f0:	80970713          	addi	a4,a4,-2039 # 1809 <_fstack+0x1209>
100004f4:	00e7a023          	sw	a4,0(a5)
100004f8:	260007b7          	lui	a5,0x26000
100004fc:	09478793          	addi	a5,a5,148 # 26000094 <_erodata+0x15fff834>
10000500:	00002737          	lui	a4,0x2
10000504:	80970713          	addi	a4,a4,-2039 # 1809 <_fstack+0x1209>
10000508:	00e7a023          	sw	a4,0(a5)
1000050c:	260007b7          	lui	a5,0x26000
10000510:	09078793          	addi	a5,a5,144 # 26000090 <_erodata+0x15fff830>
10000514:	00002737          	lui	a4,0x2
10000518:	80970713          	addi	a4,a4,-2039 # 1809 <_fstack+0x1209>
1000051c:	00e7a023          	sw	a4,0(a5)
10000520:	260007b7          	lui	a5,0x26000
10000524:	08c78793          	addi	a5,a5,140 # 2600008c <_erodata+0x15fff82c>
10000528:	00002737          	lui	a4,0x2
1000052c:	80970713          	addi	a4,a4,-2039 # 1809 <_fstack+0x1209>
10000530:	00e7a023          	sw	a4,0(a5)
10000534:	260007b7          	lui	a5,0x26000
10000538:	08878793          	addi	a5,a5,136 # 26000088 <_erodata+0x15fff828>
1000053c:	00002737          	lui	a4,0x2
10000540:	80970713          	addi	a4,a4,-2039 # 1809 <_fstack+0x1209>
10000544:	00e7a023          	sw	a4,0(a5)
10000548:	260007b7          	lui	a5,0x26000
1000054c:	08478793          	addi	a5,a5,132 # 26000084 <_erodata+0x15fff824>
10000550:	00002737          	lui	a4,0x2
10000554:	80970713          	addi	a4,a4,-2039 # 1809 <_fstack+0x1209>
10000558:	00e7a023          	sw	a4,0(a5)
1000055c:	260007b7          	lui	a5,0x26000
10000560:	08078793          	addi	a5,a5,128 # 26000080 <_erodata+0x15fff820>
10000564:	00002737          	lui	a4,0x2
10000568:	80970713          	addi	a4,a4,-2039 # 1809 <_fstack+0x1209>
1000056c:	00e7a023          	sw	a4,0(a5)
10000570:	260007b7          	lui	a5,0x26000
10000574:	07c78793          	addi	a5,a5,124 # 2600007c <_erodata+0x15fff81c>
10000578:	00002737          	lui	a4,0x2
1000057c:	80970713          	addi	a4,a4,-2039 # 1809 <_fstack+0x1209>
10000580:	00e7a023          	sw	a4,0(a5)
10000584:	260007b7          	lui	a5,0x26000
10000588:	07878793          	addi	a5,a5,120 # 26000078 <_erodata+0x15fff818>
1000058c:	00002737          	lui	a4,0x2
10000590:	80970713          	addi	a4,a4,-2039 # 1809 <_fstack+0x1209>
10000594:	00e7a023          	sw	a4,0(a5)
10000598:	260007b7          	lui	a5,0x26000
1000059c:	07478793          	addi	a5,a5,116 # 26000074 <_erodata+0x15fff814>
100005a0:	00002737          	lui	a4,0x2
100005a4:	80970713          	addi	a4,a4,-2039 # 1809 <_fstack+0x1209>
100005a8:	00e7a023          	sw	a4,0(a5)
100005ac:	260007b7          	lui	a5,0x26000
100005b0:	07078793          	addi	a5,a5,112 # 26000070 <_erodata+0x15fff810>
100005b4:	00002737          	lui	a4,0x2
100005b8:	80970713          	addi	a4,a4,-2039 # 1809 <_fstack+0x1209>
100005bc:	00e7a023          	sw	a4,0(a5)
100005c0:	260007b7          	lui	a5,0x26000
100005c4:	06c78793          	addi	a5,a5,108 # 2600006c <_erodata+0x15fff80c>
100005c8:	00002737          	lui	a4,0x2
100005cc:	80970713          	addi	a4,a4,-2039 # 1809 <_fstack+0x1209>
100005d0:	00e7a023          	sw	a4,0(a5)
100005d4:	260007b7          	lui	a5,0x26000
100005d8:	06878793          	addi	a5,a5,104 # 26000068 <_erodata+0x15fff808>
100005dc:	00002737          	lui	a4,0x2
100005e0:	80970713          	addi	a4,a4,-2039 # 1809 <_fstack+0x1209>
100005e4:	00e7a023          	sw	a4,0(a5)
100005e8:	260007b7          	lui	a5,0x26000
100005ec:	06478793          	addi	a5,a5,100 # 26000064 <_erodata+0x15fff804>
100005f0:	00002737          	lui	a4,0x2
100005f4:	80970713          	addi	a4,a4,-2039 # 1809 <_fstack+0x1209>
100005f8:	00e7a023          	sw	a4,0(a5)
100005fc:	260007b7          	lui	a5,0x26000
10000600:	06078793          	addi	a5,a5,96 # 26000060 <_erodata+0x15fff800>
10000604:	00002737          	lui	a4,0x2
10000608:	80870713          	addi	a4,a4,-2040 # 1808 <_fstack+0x1208>
1000060c:	00e7a023          	sw	a4,0(a5)
10000610:	260007b7          	lui	a5,0x26000
10000614:	05c78793          	addi	a5,a5,92 # 2600005c <_erodata+0x15fff7fc>
10000618:	00002737          	lui	a4,0x2
1000061c:	80870713          	addi	a4,a4,-2040 # 1808 <_fstack+0x1208>
10000620:	00e7a023          	sw	a4,0(a5)
10000624:	260007b7          	lui	a5,0x26000
10000628:	05878793          	addi	a5,a5,88 # 26000058 <_erodata+0x15fff7f8>
1000062c:	00002737          	lui	a4,0x2
10000630:	80870713          	addi	a4,a4,-2040 # 1808 <_fstack+0x1208>
10000634:	00e7a023          	sw	a4,0(a5)
10000638:	260007b7          	lui	a5,0x26000
1000063c:	05478793          	addi	a5,a5,84 # 26000054 <_erodata+0x15fff7f4>
10000640:	00002737          	lui	a4,0x2
10000644:	80870713          	addi	a4,a4,-2040 # 1808 <_fstack+0x1208>
10000648:	00e7a023          	sw	a4,0(a5)
1000064c:	260007b7          	lui	a5,0x26000
10000650:	05078793          	addi	a5,a5,80 # 26000050 <_erodata+0x15fff7f0>
10000654:	00002737          	lui	a4,0x2
10000658:	80870713          	addi	a4,a4,-2040 # 1808 <_fstack+0x1208>
1000065c:	00e7a023          	sw	a4,0(a5)
10000660:	260007b7          	lui	a5,0x26000
10000664:	04c78793          	addi	a5,a5,76 # 2600004c <_erodata+0x15fff7ec>
10000668:	00002737          	lui	a4,0x2
1000066c:	80870713          	addi	a4,a4,-2040 # 1808 <_fstack+0x1208>
10000670:	00e7a023          	sw	a4,0(a5)
10000674:	260007b7          	lui	a5,0x26000
10000678:	04878793          	addi	a5,a5,72 # 26000048 <_erodata+0x15fff7e8>
1000067c:	00002737          	lui	a4,0x2
10000680:	80870713          	addi	a4,a4,-2040 # 1808 <_fstack+0x1208>
10000684:	00e7a023          	sw	a4,0(a5)
10000688:	260007b7          	lui	a5,0x26000
1000068c:	04478793          	addi	a5,a5,68 # 26000044 <_erodata+0x15fff7e4>
10000690:	00002737          	lui	a4,0x2
10000694:	80870713          	addi	a4,a4,-2040 # 1808 <_fstack+0x1208>
10000698:	00e7a023          	sw	a4,0(a5)
1000069c:	260007b7          	lui	a5,0x26000
100006a0:	04078793          	addi	a5,a5,64 # 26000040 <_erodata+0x15fff7e0>
100006a4:	00002737          	lui	a4,0x2
100006a8:	80870713          	addi	a4,a4,-2040 # 1808 <_fstack+0x1208>
100006ac:	00e7a023          	sw	a4,0(a5)
100006b0:	260007b7          	lui	a5,0x26000
100006b4:	03c78793          	addi	a5,a5,60 # 2600003c <_erodata+0x15fff7dc>
100006b8:	00002737          	lui	a4,0x2
100006bc:	80870713          	addi	a4,a4,-2040 # 1808 <_fstack+0x1208>
100006c0:	00e7a023          	sw	a4,0(a5)
100006c4:	260007b7          	lui	a5,0x26000
100006c8:	03878793          	addi	a5,a5,56 # 26000038 <_erodata+0x15fff7d8>
100006cc:	00002737          	lui	a4,0x2
100006d0:	80870713          	addi	a4,a4,-2040 # 1808 <_fstack+0x1208>
100006d4:	00e7a023          	sw	a4,0(a5)
100006d8:	260007b7          	lui	a5,0x26000
100006dc:	03478793          	addi	a5,a5,52 # 26000034 <_erodata+0x15fff7d4>
100006e0:	00002737          	lui	a4,0x2
100006e4:	80870713          	addi	a4,a4,-2040 # 1808 <_fstack+0x1208>
100006e8:	00e7a023          	sw	a4,0(a5)
100006ec:	260007b7          	lui	a5,0x26000
100006f0:	03078793          	addi	a5,a5,48 # 26000030 <_erodata+0x15fff7d0>
100006f4:	00002737          	lui	a4,0x2
100006f8:	80870713          	addi	a4,a4,-2040 # 1808 <_fstack+0x1208>
100006fc:	00e7a023          	sw	a4,0(a5)
10000700:	260007b7          	lui	a5,0x26000
10000704:	02c78793          	addi	a5,a5,44 # 2600002c <_erodata+0x15fff7cc>
10000708:	00002737          	lui	a4,0x2
1000070c:	80870713          	addi	a4,a4,-2040 # 1808 <_fstack+0x1208>
10000710:	00e7a023          	sw	a4,0(a5)
10000714:	260007b7          	lui	a5,0x26000
10000718:	02878793          	addi	a5,a5,40 # 26000028 <_erodata+0x15fff7c8>
1000071c:	00002737          	lui	a4,0x2
10000720:	80870713          	addi	a4,a4,-2040 # 1808 <_fstack+0x1208>
10000724:	00e7a023          	sw	a4,0(a5)
10000728:	260007b7          	lui	a5,0x26000
1000072c:	02478793          	addi	a5,a5,36 # 26000024 <_erodata+0x15fff7c4>
10000730:	00002737          	lui	a4,0x2
10000734:	80870713          	addi	a4,a4,-2040 # 1808 <_fstack+0x1208>
10000738:	00e7a023          	sw	a4,0(a5)
1000073c:	260007b7          	lui	a5,0x26000
10000740:	00100713          	li	a4,1
10000744:	00e7a023          	sw	a4,0(a5) # 26000000 <_erodata+0x15fff7a0>
10000748:	00000013          	nop
1000074c:	260007b7          	lui	a5,0x26000
10000750:	0007a703          	lw	a4,0(a5) # 26000000 <_erodata+0x15fff7a0>
10000754:	00100793          	li	a5,1
10000758:	fef70ae3          	beq	a4,a5,1000074c <main+0x2a0>
1000075c:	f00037b7          	lui	a5,0xf0003
10000760:	00c78713          	addi	a4,a5,12 # f000300c <_erodata+0xe00027ac>
10000764:	fff00793          	li	a5,-1
10000768:	00f72023          	sw	a5,0(a4)
1000076c:	f0003737          	lui	a4,0xf0003
10000770:	01c70713          	addi	a4,a4,28 # f000301c <_erodata+0xe00027bc>
10000774:	00f72023          	sw	a5,0(a4)
10000778:	f00037b7          	lui	a5,0xf0003
1000077c:	00c78713          	addi	a4,a5,12 # f000300c <_erodata+0xe00027ac>
10000780:	00000793          	li	a5,0
10000784:	00f72023          	sw	a5,0(a4)
10000788:	f0003737          	lui	a4,0xf0003
1000078c:	01870713          	addi	a4,a4,24 # f0003018 <_erodata+0xe00027b8>
10000790:	00f72023          	sw	a5,0(a4)
10000794:	f00037b7          	lui	a5,0xf0003
10000798:	00c78713          	addi	a4,a5,12 # f000300c <_erodata+0xe00027ac>
1000079c:	00000793          	li	a5,0
100007a0:	00f72023          	sw	a5,0(a4)
100007a4:	f0003737          	lui	a4,0xf0003
100007a8:	01470713          	addi	a4,a4,20 # f0003014 <_erodata+0xe00027b4>
100007ac:	00f72023          	sw	a5,0(a4)
100007b0:	f0003737          	lui	a4,0xf0003
100007b4:	00000793          	li	a5,0
100007b8:	00f72023          	sw	a5,0(a4) # f0003000 <_erodata+0xe00027a0>
100007bc:	f0003737          	lui	a4,0xf0003
100007c0:	01070713          	addi	a4,a4,16 # f0003010 <_erodata+0xe00027b0>
100007c4:	00f72023          	sw	a5,0(a4)
100007c8:	00000593          	li	a1,0
100007cc:	00100513          	li	a0,1
100007d0:	aedff0ef          	jal	ra,100002bc <write>
100007d4:	00100593          	li	a1,1
100007d8:	00100513          	li	a0,1
100007dc:	ae1ff0ef          	jal	ra,100002bc <write>
100007e0:	00200593          	li	a1,2
100007e4:	00100513          	li	a0,1
100007e8:	ad5ff0ef          	jal	ra,100002bc <write>
100007ec:	00300593          	li	a1,3
100007f0:	00100513          	li	a0,1
100007f4:	ac9ff0ef          	jal	ra,100002bc <write>
100007f8:	00400593          	li	a1,4
100007fc:	00100513          	li	a0,1
10000800:	abdff0ef          	jal	ra,100002bc <write>
10000804:	00500593          	li	a1,5
10000808:	00100513          	li	a0,1
1000080c:	ab1ff0ef          	jal	ra,100002bc <write>
10000810:	00600593          	li	a1,6
10000814:	00100513          	li	a0,1
10000818:	aa5ff0ef          	jal	ra,100002bc <write>
1000081c:	00700593          	li	a1,7
10000820:	00100513          	li	a0,1
10000824:	a99ff0ef          	jal	ra,100002bc <write>
10000828:	00300513          	li	a0,3
1000082c:	b49ff0ef          	jal	ra,10000374 <read>
10000830:	00050793          	mv	a5,a0
10000834:	fef42623          	sw	a5,-20(s0)
10000838:	0ff00513          	li	a0,255
1000083c:	bcdff0ef          	jal	ra,10000408 <mac>
10000840:	00050793          	mv	a5,a0
10000844:	fef42423          	sw	a5,-24(s0)
10000848:	00000013          	nop
1000084c:	01c12083          	lw	ra,28(sp)
10000850:	01812403          	lw	s0,24(sp)
10000854:	02010113          	addi	sp,sp,32
10000858:	00008067          	ret
